target datalayout = "e-m:e-p270:32:32-p271:32:32-p272:64:64-i64:64-i128:128-f80:128-n8:16:32:64-S128"
target triple = "x86_64-pc-linux-gnu"

%struct.lzma_block = type { i32, i32, i32, i64, i64, ptr, [64 x i8], ptr, ptr, ptr, i32, i32, i64, i64, i64, i64, i64, i64, i32, i32, i32, i32, i8, i8, i8, i8, i8, i8, i8, i8 }
%struct.lzma_options_lzma = type { i32, ptr, i32, i32, i32, i32, i32, i32, i32, i32, i32, i32, i32, i32, i32, i32, i32, i32, i32, i32, i32, i32, ptr, ptr }
%struct.lzma_filter = type { i64, ptr }

; Function Attrs: nounwind uwtable
define internal i32 @block_encode_uncompressed(ptr noundef %0, ptr noundef %1, i64 noundef %2, ptr noundef %3, ptr noundef %4, i64 noundef %5) #0 {
  %7 = alloca i32, align 4
  %8 = alloca ptr, align 8
  %9 = alloca ptr, align 8
  %10 = alloca i64, align 8
  %11 = alloca ptr, align 8
  %12 = alloca ptr, align 8
  %13 = alloca i64, align 8
  %14 = alloca %struct.lzma_options_lzma, align 8
  %15 = alloca [2 x %struct.lzma_filter], align 16
  %16 = alloca ptr, align 8
  %17 = alloca i32, align 4
  %18 = alloca i64, align 8
  %19 = alloca i8, align 1
  %20 = alloca i64, align 8
  store ptr %0, ptr %8, align 8, !tbaa !8
  store ptr %1, ptr %9, align 8, !tbaa !10
  store i64 %2, ptr %10, align 8, !tbaa !4
  store ptr %3, ptr %11, align 8, !tbaa !10
  store ptr %4, ptr %12, align 8, !tbaa !12
  store i64 %5, ptr %13, align 8, !tbaa !4
  call void @llvm.lifetime.start.p0(i64 112, ptr %14) #7
  call void @llvm.memset.p0.i64(ptr align 8 %14, i8 0, i64 112, i1 false)
  %21 = getelementptr inbounds { i32, [4 x i8], ptr, i32, i32, i32, i32, i32, i32, i32, i32, i32, i32, i32, i32, i32, i32, i32, i32, i32, i32, i32, i32, ptr, ptr }, ptr %14, i32 0, i32 0
  store i32 4096, ptr %21, align 8
  call void @llvm.lifetime.start.p0(i64 32, ptr %15) #7
  %22 = getelementptr inbounds [2 x %struct.lzma_filter], ptr %15, i64 0, i64 0
  %23 = getelementptr inbounds nuw %struct.lzma_filter, ptr %22, i32 0, i32 0
  store i64 33, ptr %23, align 16, !tbaa !33
  %24 = getelementptr inbounds [2 x %struct.lzma_filter], ptr %15, i64 0, i64 0
  %25 = getelementptr inbounds nuw %struct.lzma_filter, ptr %24, i32 0, i32 1
  store ptr %14, ptr %25, align 8, !tbaa !35
  %26 = getelementptr inbounds [2 x %struct.lzma_filter], ptr %15, i64 0, i64 1
  %27 = getelementptr inbounds nuw %struct.lzma_filter, ptr %26, i32 0, i32 0
  store i64 -1, ptr %27, align 16, !tbaa !33
  call void @llvm.lifetime.start.p0(i64 8, ptr %16) #7
  %28 = load ptr, ptr %8, align 8, !tbaa !8
  %29 = getelementptr inbounds nuw %struct.lzma_block, ptr %28, i32 0, i32 5
  %30 = load ptr, ptr %29, align 8, !tbaa !22
  store ptr %30, ptr %16, align 8, !tbaa !8
  %31 = getelementptr inbounds [2 x %struct.lzma_filter], ptr %15, i64 0, i64 0
  %32 = load ptr, ptr %8, align 8, !tbaa !8
  %33 = getelementptr inbounds nuw %struct.lzma_block, ptr %32, i32 0, i32 5
  store ptr %31, ptr %33, align 8, !tbaa !22
  %34 = load ptr, ptr %8, align 8, !tbaa !8
  %35 = call i32 @lzma_block_header_size(ptr noundef %34) #7
  %36 = icmp ne i32 %35, 0
  br i1 %36, label %37, label %41

37:                                               ; preds = %6
  %38 = load ptr, ptr %16, align 8, !tbaa !8
  %39 = load ptr, ptr %8, align 8, !tbaa !8
  %40 = getelementptr inbounds nuw %struct.lzma_block, ptr %39, i32 0, i32 5
  store ptr %38, ptr %40, align 8, !tbaa !22
  store i32 11, ptr %7, align 4
  store i32 1, ptr %17, align 4
  br label %143

41:                                               ; preds = %6
  %42 = load i64, ptr %13, align 8, !tbaa !4
  %43 = load ptr, ptr %12, align 8, !tbaa !12
  %44 = load i64, ptr %43, align 8, !tbaa !4
  %45 = sub i64 %42, %44
  %46 = load ptr, ptr %8, align 8, !tbaa !8
  %47 = getelementptr inbounds nuw %struct.lzma_block, ptr %46, i32 0, i32 1
  %48 = load i32, ptr %47, align 4, !tbaa !29
  %49 = zext i32 %48 to i64
  %50 = load ptr, ptr %8, align 8, !tbaa !8
  %51 = getelementptr inbounds nuw %struct.lzma_block, ptr %50, i32 0, i32 3
  %52 = load i64, ptr %51, align 8, !tbaa !24
  %53 = add i64 %49, %52
  %54 = icmp ult i64 %45, %53
  br i1 %54, label %55, label %59

55:                                               ; preds = %41
  %56 = load ptr, ptr %16, align 8, !tbaa !8
  %57 = load ptr, ptr %8, align 8, !tbaa !8
  %58 = getelementptr inbounds nuw %struct.lzma_block, ptr %57, i32 0, i32 5
  store ptr %56, ptr %58, align 8, !tbaa !22
  store i32 10, ptr %7, align 4
  store i32 1, ptr %17, align 4
  br label %143

59:                                               ; preds = %41
  %60 = load ptr, ptr %8, align 8, !tbaa !8
  %61 = load ptr, ptr %11, align 8, !tbaa !10
  %62 = load ptr, ptr %12, align 8, !tbaa !12
  %63 = load i64, ptr %62, align 8, !tbaa !4
  %64 = getelementptr inbounds nuw i8, ptr %61, i64 %63
  %65 = call i32 @lzma_block_header_encode(ptr noundef %60, ptr noundef %64) #7
  %66 = icmp ne i32 %65, 0
  br i1 %66, label %67, label %71

67:                                               ; preds = %59
  %68 = load ptr, ptr %16, align 8, !tbaa !8
  %69 = load ptr, ptr %8, align 8, !tbaa !8
  %70 = getelementptr inbounds nuw %struct.lzma_block, ptr %69, i32 0, i32 5
  store ptr %68, ptr %70, align 8, !tbaa !22
  store i32 11, ptr %7, align 4
  store i32 1, ptr %17, align 4
  br label %143

71:                                               ; preds = %59
  %72 = load ptr, ptr %16, align 8, !tbaa !8
  %73 = load ptr, ptr %8, align 8, !tbaa !8
  %74 = getelementptr inbounds nuw %struct.lzma_block, ptr %73, i32 0, i32 5
  store ptr %72, ptr %74, align 8, !tbaa !22
  %75 = load ptr, ptr %8, align 8, !tbaa !8
  %76 = getelementptr inbounds nuw %struct.lzma_block, ptr %75, i32 0, i32 1
  %77 = load i32, ptr %76, align 4, !tbaa !29
  %78 = zext i32 %77 to i64
  %79 = load ptr, ptr %12, align 8, !tbaa !12
  %80 = load i64, ptr %79, align 8, !tbaa !4
  %81 = add i64 %80, %78
  store i64 %81, ptr %79, align 8, !tbaa !4
  call void @llvm.lifetime.start.p0(i64 8, ptr %18) #7
  store i64 0, ptr %18, align 8, !tbaa !4
  call void @llvm.lifetime.start.p0(i64 1, ptr %19) #7
  store i8 1, ptr %19, align 1, !tbaa !26
  br label %82

82:                                               ; preds = %102, %71
  %83 = load i64, ptr %18, align 8, !tbaa !4
  %84 = load i64, ptr %10, align 8, !tbaa !4
  %85 = icmp ult i64 %83, %84
  br i1 %85, label %86, label %137

86:                                               ; preds = %82
  %87 = load i8, ptr %19, align 1, !tbaa !26
  %88 = load ptr, ptr %11, align 8, !tbaa !10
  %89 = load ptr, ptr %12, align 8, !tbaa !12
  %90 = load i64, ptr %89, align 8, !tbaa !4
  %91 = add i64 %90, 1
  store i64 %91, ptr %89, align 8, !tbaa !4
  %92 = getelementptr inbounds nuw i8, ptr %88, i64 %90
  store i8 %87, ptr %92, align 1, !tbaa !26
  store i8 2, ptr %19, align 1, !tbaa !26
  call void @llvm.lifetime.start.p0(i64 8, ptr %20) #7
  %93 = load i64, ptr %10, align 8, !tbaa !4
  %94 = load i64, ptr %18, align 8, !tbaa !4
  %95 = sub i64 %93, %94
  %96 = icmp ult i64 %95, 65536
  br i1 %96, label %97, label %101

97:                                               ; preds = %86
  %98 = load i64, ptr %10, align 8, !tbaa !4
  %99 = load i64, ptr %18, align 8, !tbaa !4
  %100 = sub i64 %98, %99
  br label %102

101:                                              ; preds = %86
  br label %102

102:                                              ; preds = %101, %97
  %103 = phi i64 [ %100, %97 ], [ 65536, %101 ]
  store i64 %103, ptr %20, align 8, !tbaa !4
  %104 = load i64, ptr %20, align 8, !tbaa !4
  %105 = sub i64 %104, 1
  %106 = lshr i64 %105, 8
  %107 = trunc i64 %106 to i8
  %108 = load ptr, ptr %11, align 8, !tbaa !10
  %109 = load ptr, ptr %12, align 8, !tbaa !12
  %110 = load i64, ptr %109, align 8, !tbaa !4
  %111 = add i64 %110, 1
  store i64 %111, ptr %109, align 8, !tbaa !4
  %112 = getelementptr inbounds nuw i8, ptr %108, i64 %110
  store i8 %107, ptr %112, align 1, !tbaa !26
  %113 = load i64, ptr %20, align 8, !tbaa !4
  %114 = sub i64 %113, 1
  %115 = and i64 %114, 255
  %116 = trunc i64 %115 to i8
  %117 = load ptr, ptr %11, align 8, !tbaa !10
  %118 = load ptr, ptr %12, align 8, !tbaa !12
  %119 = load i64, ptr %118, align 8, !tbaa !4
  %120 = add i64 %119, 1
  store i64 %120, ptr %118, align 8, !tbaa !4
  %121 = getelementptr inbounds nuw i8, ptr %117, i64 %119
  store i8 %116, ptr %121, align 1, !tbaa !26
  %122 = load ptr, ptr %11, align 8, !tbaa !10
  %123 = load ptr, ptr %12, align 8, !tbaa !12
  %124 = load i64, ptr %123, align 8, !tbaa !4
  %125 = getelementptr inbounds nuw i8, ptr %122, i64 %124
  %126 = load ptr, ptr %9, align 8, !tbaa !10
  %127 = load i64, ptr %18, align 8, !tbaa !4
  %128 = getelementptr inbounds nuw i8, ptr %126, i64 %127
  %129 = load i64, ptr %20, align 8, !tbaa !4
  call void @llvm.memcpy.p0.p0.i64(ptr align 1 %125, ptr align 1 %128, i64 %129, i1 false)
  %130 = load i64, ptr %20, align 8, !tbaa !4
  %131 = load i64, ptr %18, align 8, !tbaa !4
  %132 = add i64 %131, %130
  store i64 %132, ptr %18, align 8, !tbaa !4
  %133 = load i64, ptr %20, align 8, !tbaa !4
  %134 = load ptr, ptr %12, align 8, !tbaa !12
  %135 = load i64, ptr %134, align 8, !tbaa !4
  %136 = add i64 %135, %133
  store i64 %136, ptr %134, align 8, !tbaa !4
  call void @llvm.lifetime.end.p0(i64 8, ptr %20) #7
  br label %82, !llvm.loop !36

137:                                              ; preds = %82
  %138 = load ptr, ptr %11, align 8, !tbaa !10
  %139 = load ptr, ptr %12, align 8, !tbaa !12
  %140 = load i64, ptr %139, align 8, !tbaa !4
  %141 = add i64 %140, 1
  store i64 %141, ptr %139, align 8, !tbaa !4
  %142 = getelementptr inbounds nuw i8, ptr %138, i64 %140
  store i8 0, ptr %142, align 1, !tbaa !26
  store i32 0, ptr %7, align 4
  store i32 1, ptr %17, align 4
  call void @llvm.lifetime.end.p0(i64 1, ptr %19) #7
  call void @llvm.lifetime.end.p0(i64 8, ptr %18) #7
  br label %143

143:                                              ; preds = %137, %67, %55, %37
  call void @llvm.lifetime.end.p0(i64 8, ptr %16) #7
  call void @llvm.lifetime.end.p0(i64 32, ptr %15) #7
  call void @llvm.lifetime.end.p0(i64 112, ptr %14) #7
  %144 = load i32, ptr %7, align 4
  ret i32 %144
}