; Function Attrs: nounwind uwtable
define internal fastcc range(i32 0, 12) i32 @block_encode_uncompressed(ptr noundef nonnull %0, ptr noundef readonly captures(none) %1, i64 noundef %2, ptr noundef nonnull %3, ptr noundef nonnull captures(none) %4, i64 noundef %5) unnamed_addr #2 {
  %7 = alloca %struct.lzma_options_lzma, align 8
  %8 = alloca [2 x %struct.lzma_filter], align 16
  call void @llvm.lifetime.start.p0(i64 112, ptr nonnull %7) #10
  call void @llvm.memset.p0.i64(ptr noundef nonnull align 8 dereferenceable(112) %7, i8 0, i64 112, i1 false)
  store i32 4096, ptr %7, align 8
  call void @llvm.lifetime.start.p0(i64 32, ptr nonnull %8) #10
  store i64 33, ptr %8, align 16, !tbaa !23
  %9 = getelementptr inbounds nuw i8, ptr %8, i64 8
  store ptr %7, ptr %9, align 8, !tbaa !25
  %10 = getelementptr inbounds nuw i8, ptr %8, i64 16
  store i64 -1, ptr %10, align 16, !tbaa !23
  %11 = getelementptr inbounds nuw i8, ptr %0, i64 32
  %12 = load ptr, ptr %11, align 8, !tbaa !13
  store ptr %8, ptr %11, align 8, !tbaa !13
  %13 = call i32 @lzma_block_header_size(ptr noundef nonnull %0) #10
  %.not = icmp eq i32 %13, 0
  br i1 %.not, label %15, label %14

14:                                               ; preds = %6
  store ptr %12, ptr %11, align 8, !tbaa !13
  br label %57

15:                                               ; preds = %6
  %16 = load i64, ptr %4, align 8, !tbaa !4
  %17 = sub i64 %5, %16
  %18 = getelementptr inbounds nuw i8, ptr %0, i64 4
  %19 = load i32, ptr %18, align 4, !tbaa !19
  %20 = zext i32 %19 to i64
  %21 = getelementptr inbounds nuw i8, ptr %0, i64 16
  %22 = load i64, ptr %21, align 8, !tbaa !15
  %23 = add i64 %22, %20
  %24 = icmp ult i64 %17, %23
  br i1 %24, label %25, label %26

25:                                               ; preds = %15
  store ptr %12, ptr %11, align 8, !tbaa !13
  br label %57

26:                                               ; preds = %15
  %27 = getelementptr inbounds nuw i8, ptr %3, i64 %16
  %28 = call i32 @lzma_block_header_encode(ptr noundef nonnull %0, ptr noundef nonnull %27) #10
  %.not49 = icmp eq i32 %28, 0
  store ptr %12, ptr %11, align 8, !tbaa !13
  br i1 %.not49, label %29, label %57

29:                                               ; preds = %26
  %30 = load i32, ptr %18, align 4, !tbaa !19
  %31 = zext i32 %30 to i64
  %32 = load i64, ptr %4, align 8, !tbaa !4
  %33 = add i64 %32, %31
  %.not53 = icmp eq i64 %2, 0
  br i1 %.not53, label %._crit_edge, label %.lr.ph

.lr.ph:                                           ; preds = %29, %.lr.ph
  %.04652 = phi i8 [ 2, %.lr.ph ], [ 1, %29 ]
  %.04751 = phi i64 [ %51, %.lr.ph ], [ 0, %29 ]
  %storemerge50 = phi i64 [ %53, %.lr.ph ], [ %33, %29 ]
  %34 = add i64 %storemerge50, 1
  store i64 %34, ptr %4, align 8, !tbaa !4
  %35 = getelementptr inbounds nuw i8, ptr %3, i64 %storemerge50
  store i8 %.04652, ptr %35, align 1, !tbaa !16
  %36 = sub nuw i64 %2, %.04751
  %37 = call i64 @llvm.umin.i64(i64 %36, i64 65536)
  %38 = add nsw i64 %37, -1
  %39 = lshr i64 %38, 8
  %40 = trunc i64 %39 to i8
  %41 = load i64, ptr %4, align 8, !tbaa !4
  %42 = add i64 %41, 1
  store i64 %42, ptr %4, align 8, !tbaa !4
  %43 = getelementptr inbounds nuw i8, ptr %3, i64 %41
  store i8 %40, ptr %43, align 1, !tbaa !16
  %44 = trunc i64 %38 to i8
  %45 = load i64, ptr %4, align 8, !tbaa !4
  %46 = add i64 %45, 1
  store i64 %46, ptr %4, align 8, !tbaa !4
  %47 = getelementptr inbounds nuw i8, ptr %3, i64 %45
  store i8 %44, ptr %47, align 1, !tbaa !16
  %48 = load i64, ptr %4, align 8, !tbaa !4
  %49 = getelementptr inbounds nuw i8, ptr %3, i64 %48
  %50 = getelementptr inbounds nuw i8, ptr %1, i64 %.04751
  call void @llvm.memcpy.p0.p0.i64(ptr nonnull align 1 %49, ptr align 1 %50, i64 %37, i1 false)
  %51 = add i64 %37, %.04751
  %52 = load i64, ptr %4, align 8, !tbaa !4
  %53 = add i64 %52, %37
  store i64 %53, ptr %4, align 8, !tbaa !4
  %54 = icmp ult i64 %51, %2
  br i1 %54, label %.lr.ph, label %._crit_edge, !llvm.loop !26

._crit_edge:                                      ; preds = %.lr.ph, %29
  %storemerge.lcssa = phi i64 [ %33, %29 ], [ %53, %.lr.ph ]
  %55 = add i64 %storemerge.lcssa, 1
  store i64 %55, ptr %4, align 8, !tbaa !4
  %56 = getelementptr inbounds nuw i8, ptr %3, i64 %storemerge.lcssa
  store i8 0, ptr %56, align 1, !tbaa !16
  br label %57

57:                                               ; preds = %26, %._crit_edge, %25, %14
  %.0 = phi i32 [ 11, %14 ], [ 10, %25 ], [ 0, %._crit_edge ], [ 11, %26 ]
  call void @llvm.lifetime.end.p0(i64 32, ptr nonnull %8) #10
  call void @llvm.lifetime.end.p0(i64 112, ptr nonnull %7) #10
  ret i32 %.0
}